; Function Attrs: inlinehint mustprogress nounwind optsize uwtable
define internal noundef ptr @"_ZZN8nanobind6detail11func_createILb0ELb1EZL30nanobind_init_test_holders_extRNS_7module_EE4$_27St4pairIiiEJETpTnmJEJNS_5scopeENS_4nameEEEEP7_objectOT1_PFT2_DpT3_ESt16integer_sequenceImJXspT4_EEEDpRKT5_ENUlPvPSA_PhNS_9rv_policyEPNS0_12cleanup_listEE_8__invokeESO_SP_SQ_SR_ST_"(ptr readnone captures(none) %0, ptr readnone captures(none) %1, ptr readnone captures(none) %2, i32 noundef %3, ptr noundef %4) #12 align 2 {
  %6 = alloca %"struct.std::pair.433", align 8
  call void @llvm.lifetime.start.p0(i64 8, ptr nonnull %6) #26
  %7 = load i32, ptr @_ZL7created, align 4, !tbaa !69
  %8 = load i32, ptr @_ZL7deleted, align 4, !tbaa !69
  %.sroa.2.0.insert.ext.i.i = zext i32 %8 to i64
  %.sroa.2.0.insert.shift.i.i = shl nuw i64 %.sroa.2.0.insert.ext.i.i, 32
  %.sroa.0.0.insert.ext.i.i = zext i32 %7 to i64
  %.sroa.0.0.insert.insert.i.i = or disjoint i64 %.sroa.2.0.insert.shift.i.i, %.sroa.0.0.insert.ext.i.i
  store i64 %.sroa.0.0.insert.insert.i.i, ptr %6, align 8
  %9 = call ptr @_ZN8nanobind6detail11type_casterISt4pairIiiEiE8from_cppIS3_EENS_6handleEOT_NS_9rv_policyEPNS0_12cleanup_listE(ptr noundef nonnull align 4 dereferenceable(8) %6, i32 noundef %3, ptr noundef %4) #27
  call void @llvm.lifetime.end.p0(i64 8, ptr nonnull %6) #26
  ret ptr %9
}